target datalayout = "e-m:e-p270:32:32-p271:32:32-p272:64:64-i64:64-i128:128-f80:128-n8:16:32:64-S128"
target triple = "x86_64-pc-linux-gnu"

%struct.RandomizerInstance = type { %"struct.vcpkg::GraphRandomizer", %"class.std::random_device" }
%"struct.vcpkg::GraphRandomizer" = type { ptr }
%"class.std::random_device" = type { %union.anon.144 }
%union.anon.144 = type { %"class.std::mersenne_twister_engine" }
%"class.std::mersenne_twister_engine" = type { [624 x i64], i64 }
%"class.std::uniform_int_distribution" = type { %"struct.std::uniform_int_distribution<>::param_type" }
%"struct.std::uniform_int_distribution<>::param_type" = type { i32, i32 }

; Function Attrs: mustprogress uwtable
define linkonce_odr dso_local noundef i32 @_ZNSt13random_deviceclEv(ptr noundef nonnull align 8 dereferenceable(5000) %0) #0 comdat align 2 {
  %2 = alloca ptr, align 8
  store ptr %0, ptr %2, align 8
  %3 = load ptr, ptr %2, align 8
  %4 = call noundef i32 @_ZNSt13random_device9_M_getvalEv(ptr noundef nonnull align 8 dereferenceable(5000) %3)
  ret i32 %4
}

; Function Attrs: mustprogress uwtable
define linkonce_odr dso_local noundef i32 @_ZNSt24uniform_int_distributionIiE5_S_ndImSt13random_devicejEET1_RT0_S3_(ptr noundef nonnull align 8 dereferenceable(5000) %0, i32 noundef %1) #0 comdat align 2 {
  %3 = alloca ptr, align 8
  %4 = alloca i32, align 4
  %5 = alloca i64, align 8
  %6 = alloca i32, align 4
  %7 = alloca i32, align 4
  store ptr %0, ptr %3, align 8
  store i32 %1, ptr %4, align 4
  %8 = load ptr, ptr %3, align 8
  %9 = call noundef i32 @_ZNSt13random_deviceclEv(ptr noundef nonnull align 8 dereferenceable(5000) %8)
  %10 = zext i32 %9 to i64
  %11 = load i32, ptr %4, align 4
  %12 = zext i32 %11 to i64
  %13 = mul i64 %10, %12
  store i64 %13, ptr %5, align 8
  %14 = load i64, ptr %5, align 8
  %15 = trunc i64 %14 to i32
  store i32 %15, ptr %6, align 4
  %16 = load i32, ptr %6, align 4
  %17 = load i32, ptr %4, align 4
  %18 = icmp ult i32 %16, %17
  br i1 %18, label %19, label %38

19:                                               ; preds = %2
  %20 = load i32, ptr %4, align 4
  %21 = sub i32 0, %20
  %22 = load i32, ptr %4, align 4
  %23 = urem i32 %21, %22
  store i32 %23, ptr %7, align 4
  br label %24

24:                                               ; preds = %28, %19
  %25 = load i32, ptr %6, align 4
  %26 = load i32, ptr %7, align 4
  %27 = icmp ult i32 %25, %26
  br i1 %27, label %28, label %37

28:                                               ; preds = %24
  %29 = load ptr, ptr %3, align 8
  %30 = call noundef i32 @_ZNSt13random_deviceclEv(ptr noundef nonnull align 8 dereferenceable(5000) %29)
  %31 = zext i32 %30 to i64
  %32 = load i32, ptr %4, align 4
  %33 = zext i32 %32 to i64
  %34 = mul i64 %31, %33
  store i64 %34, ptr %5, align 8
  %35 = load i64, ptr %5, align 8
  %36 = trunc i64 %35 to i32
  store i32 %36, ptr %6, align 4
  br label %24, !llvm.loop !43

37:                                               ; preds = %24
  br label %38

38:                                               ; preds = %37, %2
  %39 = load i64, ptr %5, align 8
  %40 = lshr i64 %39, 32
  %41 = trunc i64 %40 to i32
  ret i32 %41
}

; Function Attrs: mustprogress nounwind uwtable
define linkonce_odr dso_local noundef i32 @_ZNKSt24uniform_int_distributionIiE10param_type1aEv(ptr noundef nonnull align 4 dereferenceable(8) %0) #3 comdat align 2 {
  %2 = alloca ptr, align 8
  store ptr %0, ptr %2, align 8
  %3 = load ptr, ptr %2, align 8
  %4 = getelementptr inbounds %"struct.std::uniform_int_distribution<>::param_type", ptr %3, i32 0, i32 0
  %5 = load i32, ptr %4, align 4
  ret i32 %5
}

; Function Attrs: mustprogress nounwind uwtable
define linkonce_odr dso_local noundef i32 @_ZNKSt24uniform_int_distributionIiE10param_type1bEv(ptr noundef nonnull align 4 dereferenceable(8) %0) #3 comdat align 2 {
  %2 = alloca ptr, align 8
  store ptr %0, ptr %2, align 8
  %3 = load ptr, ptr %2, align 8
  %4 = getelementptr inbounds %"struct.std::uniform_int_distribution<>::param_type", ptr %3, i32 0, i32 1
  %5 = load i32, ptr %4, align 4
  ret i32 %5
}

; Function Attrs: mustprogress uwtable
define linkonce_odr dso_local noundef i32 @_ZNSt24uniform_int_distributionIiEclISt13random_deviceEEiRT_RKNS0_10param_typeE(ptr noundef nonnull align 4 dereferenceable(8) %0, ptr noundef nonnull align 8 dereferenceable(5000) %1, ptr noundef nonnull align 4 dereferenceable(8) %2) #0 comdat align 2 {
  %4 = alloca ptr, align 8
  %5 = alloca ptr, align 8
  %6 = alloca ptr, align 8
  %7 = alloca i32, align 4
  %8 = alloca i32, align 4
  %9 = alloca i32, align 4
  %10 = alloca i32, align 4
  %11 = alloca i32, align 4
  %12 = alloca i32, align 4
  %13 = alloca i32, align 4
  %14 = alloca i32, align 4
  %15 = alloca i32, align 4
  %16 = alloca %"struct.std::uniform_int_distribution<>::param_type", align 4
  store ptr %0, ptr %4, align 8
  store ptr %1, ptr %5, align 8
  store ptr %2, ptr %6, align 8
  %17 = load ptr, ptr %4, align 8
  store i32 0, ptr %7, align 4
  store i32 -1, ptr %8, align 4
  store i32 -1, ptr %9, align 4
  %18 = load ptr, ptr %6, align 8
  %19 = call noundef i32 @_ZNKSt24uniform_int_distributionIiE10param_type1bEv(ptr noundef nonnull align 4 dereferenceable(8) %18)
  %20 = load ptr, ptr %6, align 8
  %21 = call noundef i32 @_ZNKSt24uniform_int_distributionIiE10param_type1aEv(ptr noundef nonnull align 4 dereferenceable(8) %20)
  %22 = sub i32 %19, %21
  store i32 %22, ptr %10, align 4
  %23 = load i32, ptr %10, align 4
  %24 = icmp ugt i32 -1, %23
  br i1 %24, label %25, label %32

25:                                               ; preds = %3
  %26 = load i32, ptr %10, align 4
  %27 = add i32 %26, 1
  store i32 %27, ptr %12, align 4
  %28 = load i32, ptr %12, align 4
  store i32 %28, ptr %13, align 4
  %29 = load ptr, ptr %5, align 8
  %30 = load i32, ptr %13, align 4
  %31 = call noundef i32 @_ZNSt24uniform_int_distributionIiE5_S_ndImSt13random_devicejEET1_RT0_S3_(ptr noundef nonnull align 8 dereferenceable(5000) %29, i32 noundef %30)
  store i32 %31, ptr %11, align 4
  br label %63

32:                                               ; preds = %3
  %33 = load i32, ptr %10, align 4
  %34 = icmp ult i32 -1, %33
  br i1 %34, label %35, label %58

35:                                               ; preds = %32
  br label %36

36:                                               ; preds = %55, %35
  store i32 0, ptr %15, align 4
  %37 = load ptr, ptr %5, align 8
  %38 = load i32, ptr %10, align 4
  %39 = udiv i32 %38, 0
  call void @_ZNSt24uniform_int_distributionIiE10param_typeC2Eii(ptr noundef nonnull align 4 dereferenceable(8) %16, i32 noundef 0, i32 noundef %39)
  %40 = call noundef i32 @_ZNSt24uniform_int_distributionIiEclISt13random_deviceEEiRT_RKNS0_10param_typeE(ptr noundef nonnull align 4 dereferenceable(8) %17, ptr noundef nonnull align 8 dereferenceable(5000) %37, ptr noundef nonnull align 4 dereferenceable(8) %16)
  %41 = mul i32 0, %40
  store i32 %41, ptr %14, align 4
  %42 = load i32, ptr %14, align 4
  %43 = load ptr, ptr %5, align 8
  %44 = call noundef i32 @_ZNSt13random_deviceclEv(ptr noundef nonnull align 8 dereferenceable(5000) %43)
  %45 = sub i32 %44, 0
  %46 = add i32 %42, %45
  store i32 %46, ptr %11, align 4
  br label %47

47:                                               ; preds = %36
  %48 = load i32, ptr %11, align 4
  %49 = load i32, ptr %10, align 4
  %50 = icmp ugt i32 %48, %49
  br i1 %50, label %55, label %51

51:                                               ; preds = %47
  %52 = load i32, ptr %11, align 4
  %53 = load i32, ptr %14, align 4
  %54 = icmp ult i32 %52, %53
  br label %55

55:                                               ; preds = %51, %47
  %56 = phi i1 [ true, %47 ], [ %54, %51 ]
  br i1 %56, label %36, label %57, !llvm.loop !42

57:                                               ; preds = %55
  br label %62

58:                                               ; preds = %32
  %59 = load ptr, ptr %5, align 8
  %60 = call noundef i32 @_ZNSt13random_deviceclEv(ptr noundef nonnull align 8 dereferenceable(5000) %59)
  %61 = sub i32 %60, 0
  store i32 %61, ptr %11, align 4
  br label %62

62:                                               ; preds = %58, %57
  br label %63

63:                                               ; preds = %62, %25
  %64 = load i32, ptr %11, align 4
  %65 = load ptr, ptr %6, align 8
  %66 = call noundef i32 @_ZNKSt24uniform_int_distributionIiE10param_type1aEv(ptr noundef nonnull align 4 dereferenceable(8) %65)
  %67 = add i32 %64, %66
  ret i32 %67
}

; Function Attrs: mustprogress nounwind uwtable
define linkonce_odr dso_local void @_ZNSt24uniform_int_distributionIiE10param_typeC2Eii(ptr noundef nonnull align 4 dereferenceable(8) %0, i32 noundef %1, i32 noundef %2) unnamed_addr #3 comdat align 2 {
  %4 = alloca ptr, align 8
  %5 = alloca i32, align 4
  %6 = alloca i32, align 4
  store ptr %0, ptr %4, align 8
  store i32 %1, ptr %5, align 4
  store i32 %2, ptr %6, align 4
  %7 = load ptr, ptr %4, align 8
  %8 = getelementptr inbounds %"struct.std::uniform_int_distribution<>::param_type", ptr %7, i32 0, i32 0
  %9 = load i32, ptr %5, align 4
  store i32 %9, ptr %8, align 4
  %10 = getelementptr inbounds %"struct.std::uniform_int_distribution<>::param_type", ptr %7, i32 0, i32 1
  %11 = load i32, ptr %6, align 4
  store i32 %11, ptr %10, align 4
  br label %12

12:                                               ; preds = %3
  br label %13

13:                                               ; preds = %12
  ret void
}

; Function Attrs: mustprogress uwtable
define linkonce_odr dso_local noundef i32 @_ZNSt24uniform_int_distributionIiEclISt13random_deviceEEiRT_(ptr noundef nonnull align 4 dereferenceable(8) %0, ptr noundef nonnull align 8 dereferenceable(5000) %1) #0 comdat align 2 {
  %3 = alloca ptr, align 8
  %4 = alloca ptr, align 8
  store ptr %0, ptr %3, align 8
  store ptr %1, ptr %4, align 8
  %5 = load ptr, ptr %3, align 8
  %6 = load ptr, ptr %4, align 8
  %7 = getelementptr inbounds %"class.std::uniform_int_distribution", ptr %5, i32 0, i32 0
  %8 = call noundef i32 @_ZNSt24uniform_int_distributionIiEclISt13random_deviceEEiRT_RKNS0_10param_typeE(ptr noundef nonnull align 4 dereferenceable(8) %5, ptr noundef nonnull align 8 dereferenceable(5000) %6, ptr noundef nonnull align 4 dereferenceable(8) %7)
  ret i32 %8
}

; Function Attrs: mustprogress uwtable
define linkonce_odr dso_local void @_ZNSt24uniform_int_distributionIiEC2Eii(ptr noundef nonnull align 4 dereferenceable(8) %0, i32 noundef %1, i32 noundef %2) unnamed_addr #0 comdat align 2 {
  %4 = alloca ptr, align 8
  %5 = alloca i32, align 4
  %6 = alloca i32, align 4
  store ptr %0, ptr %4, align 8
  store i32 %1, ptr %5, align 4
  store i32 %2, ptr %6, align 4
  %7 = load ptr, ptr %4, align 8
  %8 = getelementptr inbounds %"class.std::uniform_int_distribution", ptr %7, i32 0, i32 0
  %9 = load i32, ptr %5, align 4
  %10 = load i32, ptr %6, align 4
  call void @_ZNSt24uniform_int_distributionIiE10param_typeC2Eii(ptr noundef nonnull align 4 dereferenceable(8) %8, i32 noundef %9, i32 noundef %10)
  ret void
}

; Function Attrs: mustprogress uwtable
define internal noundef i32 @_ZZN5vcpkg19command_ci_and_exitERKNS_17VcpkgCmdArgumentsERKNS_10VcpkgPathsENS_7TripletES6_EN18RandomizerInstance6randomEi(ptr noundef nonnull align 8 dereferenceable(5008) %0, i32 noundef %1) unnamed_addr #0 align 2 {
  %3 = alloca i32, align 4
  %4 = alloca ptr, align 8
  %5 = alloca i32, align 4
  %6 = alloca %"class.std::uniform_int_distribution", align 4
  store ptr %0, ptr %4, align 8
  store i32 %1, ptr %5, align 4
  %7 = load ptr, ptr %4, align 8
  %8 = load i32, ptr %5, align 4
  %9 = icmp sle i32 %8, 1
  br i1 %9, label %10, label %11

10:                                               ; preds = %2
  store i32 0, ptr %3, align 4
  br label %16

11:                                               ; preds = %2
  %12 = load i32, ptr %5, align 4
  %13 = sub nsw i32 %12, 1
  call void @_ZNSt24uniform_int_distributionIiEC2Eii(ptr noundef nonnull align 4 dereferenceable(8) %6, i32 noundef 0, i32 noundef %13)
  %14 = getelementptr inbounds %struct.RandomizerInstance, ptr %7, i32 0, i32 1
  %15 = call noundef i32 @_ZNSt24uniform_int_distributionIiEclISt13random_deviceEEiRT_(ptr noundef nonnull align 4 dereferenceable(8) %6, ptr noundef nonnull align 8 dereferenceable(5000) %14)
  store i32 %15, ptr %3, align 4
  br label %16

16:                                               ; preds = %11, %10
  %17 = load i32, ptr %3, align 4
  ret i32 %17
}