; Function Attrs: mustprogress uwtable
define internal noundef i32 @_ZZN5vcpkg19command_ci_and_exitERKNS_17VcpkgCmdArgumentsERKNS_10VcpkgPathsENS_7TripletES6_EN18RandomizerInstance6randomEi(ptr noundef nonnull align 8 dereferenceable(5008) %0, i32 noundef %1) unnamed_addr #1 align 2 {
  %3 = icmp slt i32 %1, 2
  br i1 %3, label %23, label %4

4:                                                ; preds = %2
  %5 = add nsw i32 %1, -1
  %6 = getelementptr inbounds i8, ptr %0, i64 8
  %7 = tail call noundef i32 @_ZNSt13random_device9_M_getvalEv(ptr noundef nonnull align 8 dereferenceable(5000) %6)
  %8 = zext i32 %7 to i64
  %9 = zext nneg i32 %1 to i64
  %10 = mul nuw nsw i64 %8, %9
  %11 = trunc i64 %10 to i32
  %.not21.i.i = icmp ult i32 %5, %11
  br i1 %.not21.i.i, label %_ZNSt24uniform_int_distributionIiEclISt13random_deviceEEiRT_.exit, label %12

12:                                               ; preds = %4
  %13 = sub nsw i32 0, %1
  %14 = urem i32 %13, %1
  %15 = icmp ugt i32 %14, %11
  br i1 %15, label %.lr.ph.i.i.i, label %_ZNSt24uniform_int_distributionIiEclISt13random_deviceEEiRT_.exit

.lr.ph.i.i.i:                                     ; preds = %12, %.lr.ph.i.i.i
  %16 = tail call noundef i32 @_ZNSt13random_device9_M_getvalEv(ptr noundef nonnull align 8 dereferenceable(5000) %6)
  %17 = zext i32 %16 to i64
  %18 = mul nuw nsw i64 %17, %9
  %19 = trunc i64 %18 to i32
  %20 = icmp ugt i32 %14, %19
  br i1 %20, label %.lr.ph.i.i.i, label %_ZNSt24uniform_int_distributionIiEclISt13random_deviceEEiRT_.exit, !llvm.loop !132

_ZNSt24uniform_int_distributionIiEclISt13random_deviceEEiRT_.exit: ; preds = %.lr.ph.i.i.i, %4, %12
  %.1.i.i.i = phi i64 [ %10, %4 ], [ %10, %12 ], [ %18, %.lr.ph.i.i.i ]
  %21 = lshr i64 %.1.i.i.i, 32
  %22 = trunc i64 %21 to i32
  br label %23

23:                                               ; preds = %2, %_ZNSt24uniform_int_distributionIiEclISt13random_deviceEEiRT_.exit
  %.0 = phi i32 [ %22, %_ZNSt24uniform_int_distributionIiEclISt13random_deviceEEiRT_.exit ], [ 0, %2 ]
  ret i32 %.0
}